target datalayout = "e-m:e-p270:32:32-p271:32:32-p272:64:64-i64:64-i128:128-f80:128-n8:16:32:64-S128"
target triple = "x86_64-pc-linux-gnu"

%struct.mbedtls_x509write_cert = type { i32, [20 x i8], i64, ptr, ptr, ptr, ptr, i32, [16 x i8], [16 x i8], ptr }

@.str.1 = private unnamed_addr constant [4 x i8] c"U\1D\0F\00", align 1

; Function Attrs: nounwind uwtable
define hidden i32 @mbedtls_x509write_crt_set_extension(ptr noundef %0, ptr noundef %1, i64 noundef %2, i32 noundef %3, ptr noundef %4, i64 noundef %5) #0 {
  %7 = alloca ptr, align 8
  %8 = alloca ptr, align 8
  %9 = alloca i64, align 8
  %10 = alloca i32, align 4
  %11 = alloca ptr, align 8
  %12 = alloca i64, align 8
  store ptr %0, ptr %7, align 8, !tbaa !3
  store ptr %1, ptr %8, align 8, !tbaa !19
  store i64 %2, ptr %9, align 8, !tbaa !23
  store i32 %3, ptr %10, align 4, !tbaa !14
  store ptr %4, ptr %11, align 8, !tbaa !19
  store i64 %5, ptr %12, align 8, !tbaa !23
  %13 = load ptr, ptr %7, align 8, !tbaa !3
  %14 = getelementptr inbounds nuw %struct.mbedtls_x509write_cert, ptr %13, i32 0, i32 10
  %15 = load ptr, ptr %8, align 8, !tbaa !19
  %16 = load i64, ptr %9, align 8, !tbaa !23
  %17 = load i32, ptr %10, align 4, !tbaa !14
  %18 = load ptr, ptr %11, align 8, !tbaa !19
  %19 = load i64, ptr %12, align 8, !tbaa !23
  %20 = call i32 @mbedtls_x509_set_extension(ptr noundef %14, ptr noundef %15, i64 noundef %16, i32 noundef %17, ptr noundef %18, i64 noundef %19)
  ret i32 %20
}

; Function Attrs: alwaysinline nounwind uwtable
define internal void @mbedtls_put_unaligned_uint16(ptr noundef %0, i16 noundef zeroext %1) #7 {
  %3 = alloca ptr, align 8
  %4 = alloca i16, align 2
  store ptr %0, ptr %3, align 8, !tbaa !28
  store i16 %1, ptr %4, align 2, !tbaa !29
  %5 = load ptr, ptr %3, align 8, !tbaa !28
  call void @llvm.memcpy.p0.p0.i64(ptr align 1 %5, ptr align 2 %4, i64 2, i1 false)
  ret void
}

; Function Attrs: nounwind uwtable
define hidden i32 @mbedtls_x509write_crt_set_key_usage(ptr noundef %0, i32 noundef %1) #0 {
  %3 = alloca i32, align 4
  %4 = alloca ptr, align 8
  %5 = alloca i32, align 4
  %6 = alloca [5 x i8], align 1
  %7 = alloca [2 x i8], align 1
  %8 = alloca ptr, align 8
  %9 = alloca i32, align 4
  %10 = alloca i32, align 4
  %11 = alloca i32, align 4
  store ptr %0, ptr %4, align 8, !tbaa !3
  store i32 %1, ptr %5, align 4, !tbaa !14
  call void @llvm.lifetime.start.p0(i64 5, ptr %6) #8
  call void @llvm.memset.p0.i64(ptr align 1 %6, i8 0, i64 5, i1 false)
  call void @llvm.lifetime.start.p0(i64 2, ptr %7) #8
  call void @llvm.memset.p0.i64(ptr align 1 %7, i8 0, i64 2, i1 false)
  call void @llvm.lifetime.start.p0(i64 8, ptr %8) #8
  call void @llvm.lifetime.start.p0(i64 4, ptr %9) #8
  store i32 -110, ptr %9, align 4, !tbaa !14
  call void @llvm.lifetime.start.p0(i64 4, ptr %10) #8
  store i32 33023, ptr %10, align 4, !tbaa !14
  %12 = load i32, ptr %5, align 4, !tbaa !14
  %13 = and i32 %12, -33024
  %14 = icmp ne i32 %13, 0
  br i1 %14, label %15, label %16

15:                                               ; preds = %2
  store i32 -8320, ptr %3, align 4
  store i32 1, ptr %11, align 4
  br label %49

16:                                               ; preds = %2
  %17 = getelementptr inbounds [5 x i8], ptr %6, i64 0, i64 0
  %18 = getelementptr inbounds i8, ptr %17, i64 5
  store ptr %18, ptr %8, align 8, !tbaa !19
  %19 = getelementptr inbounds [2 x i8], ptr %7, i64 0, i64 0
  %20 = getelementptr inbounds i8, ptr %19, i64 0
  %21 = load i32, ptr %5, align 4, !tbaa !14
  %22 = trunc i32 %21 to i16
  call void @mbedtls_put_unaligned_uint16(ptr noundef %20, i16 noundef zeroext %22)
  %23 = getelementptr inbounds [5 x i8], ptr %6, i64 0, i64 0
  %24 = getelementptr inbounds [2 x i8], ptr %7, i64 0, i64 0
  %25 = call i32 @mbedtls_asn1_write_named_bitstring(ptr noundef %8, ptr noundef %23, ptr noundef %24, i64 noundef 9)
  store i32 %25, ptr %9, align 4, !tbaa !14
  %26 = load i32, ptr %9, align 4, !tbaa !14
  %27 = icmp slt i32 %26, 0
  br i1 %27, label %28, label %30

28:                                               ; preds = %16
  %29 = load i32, ptr %9, align 4, !tbaa !14
  store i32 %29, ptr %3, align 4
  store i32 1, ptr %11, align 4
  br label %49

30:                                               ; preds = %16
  %31 = load i32, ptr %9, align 4, !tbaa !14
  %32 = icmp slt i32 %31, 3
  br i1 %32, label %36, label %33

33:                                               ; preds = %30
  %34 = load i32, ptr %9, align 4, !tbaa !14
  %35 = icmp sgt i32 %34, 5
  br i1 %35, label %36, label %37

36:                                               ; preds = %33, %30
  store i32 -8576, ptr %3, align 4
  store i32 1, ptr %11, align 4
  br label %49

37:                                               ; preds = %33
  br label %38

38:                                               ; preds = %37
  %39 = load ptr, ptr %4, align 8, !tbaa !3
  %40 = load ptr, ptr %8, align 8, !tbaa !19
  %41 = load i32, ptr %9, align 4, !tbaa !14
  %42 = sext i32 %41 to i64
  %43 = call i32 @mbedtls_x509write_crt_set_extension(ptr noundef %39, ptr noundef @.str.1, i64 noundef 3, i32 noundef 1, ptr noundef %40, i64 noundef %42)
  store i32 %43, ptr %9, align 4, !tbaa !14
  %44 = load i32, ptr %9, align 4, !tbaa !14
  %45 = icmp ne i32 %44, 0
  br i1 %45, label %46, label %48

46:                                               ; preds = %38
  %47 = load i32, ptr %9, align 4, !tbaa !14
  store i32 %47, ptr %3, align 4
  store i32 1, ptr %11, align 4
  br label %49

48:                                               ; preds = %38
  store i32 0, ptr %3, align 4
  store i32 1, ptr %11, align 4
  br label %49

49:                                               ; preds = %48, %46, %36, %28, %15
  call void @llvm.lifetime.end.p0(i64 4, ptr %10) #8
  call void @llvm.lifetime.end.p0(i64 4, ptr %9) #8
  call void @llvm.lifetime.end.p0(i64 8, ptr %8) #8
  call void @llvm.lifetime.end.p0(i64 2, ptr %7) #8
  call void @llvm.lifetime.end.p0(i64 5, ptr %6) #8
  %50 = load i32, ptr %3, align 4
  ret i32 %50
}