; Function Attrs: nounwind uwtable
define hidden i32 @mbedtls_x509write_crt_set_key_usage(ptr noundef %0, i32 noundef %1) local_unnamed_addr #2 {
  %3 = alloca [5 x i8], align 1
  %4 = alloca [2 x i8], align 2
  %5 = alloca ptr, align 8
  call void @llvm.lifetime.start.p0(i64 5, ptr nonnull %3) #11
  call void @llvm.memset.p0.i64(ptr noundef nonnull align 1 dereferenceable(5) %3, i8 0, i64 5, i1 false)
  call void @llvm.lifetime.start.p0(i64 2, ptr nonnull %4) #11
  call void @llvm.lifetime.start.p0(i64 8, ptr nonnull %5) #11
  %6 = and i32 %1, -33024
  %.not = icmp eq i32 %6, 0
  br i1 %.not, label %7, label %19

7:                                                ; preds = %2
  %8 = getelementptr inbounds nuw i8, ptr %3, i64 5
  store ptr %8, ptr %5, align 8, !tbaa !17
  %9 = trunc nuw i32 %1 to i16
  store i16 %9, ptr %4, align 2
  %10 = call i32 @mbedtls_asn1_write_named_bitstring(ptr noundef nonnull %5, ptr noundef nonnull %3, ptr noundef nonnull %4, i64 noundef 9) #11
  %11 = icmp slt i32 %10, 0
  br i1 %11, label %19, label %12

12:                                               ; preds = %7
  %13 = add nsw i32 %10, -6
  %or.cond = icmp ult i32 %13, -3
  br i1 %or.cond, label %19, label %14

14:                                               ; preds = %12
  %15 = load ptr, ptr %5, align 8, !tbaa !17
  %16 = zext nneg i32 %10 to i64
  %17 = getelementptr inbounds nuw i8, ptr %0, i64 104
  %18 = call i32 @mbedtls_x509_set_extension(ptr noundef nonnull %17, ptr noundef nonnull @.str.1, i64 noundef 3, i32 noundef 1, ptr noundef %15, i64 noundef %16) #11
  br label %19

19:                                               ; preds = %14, %12, %7, %2
  %.0 = phi i32 [ -8320, %2 ], [ %10, %7 ], [ -8576, %12 ], [ %18, %14 ]
  call void @llvm.lifetime.end.p0(i64 8, ptr nonnull %5) #11
  call void @llvm.lifetime.end.p0(i64 2, ptr nonnull %4) #11
  call void @llvm.lifetime.end.p0(i64 5, ptr nonnull %3) #11
  ret i32 %.0
}